; Function Attrs: mustprogress nounwind uwtable
define hidden noundef ptr @_ZN16ciTypeArrayKlass9make_implE9BasicType(i8 noundef zeroext %0) local_unnamed_addr #0 align 2 {
  %2 = zext i8 %0 to i64
  %3 = getelementptr inbounds [12 x ptr], ptr @_ZN8Universe17_typeArrayKlassesE, i64 0, i64 %2
  %4 = load ptr, ptr %3, align 8
  %5 = icmp eq ptr %4, null
  br i1 %5, label %_ZN5ciEnv20get_type_array_klassEP5Klass.exit, label %_ZN5ciEnv12get_metadataEP8Metadata.exit.i

_ZN5ciEnv12get_metadataEP8Metadata.exit.i:        ; preds = %1
  %6 = tail call align 8 ptr @llvm.threadlocal.address.p0(ptr align 8 @_ZN6Thread12_thr_currentE)
  %7 = load ptr, ptr %6, align 8
  %8 = getelementptr inbounds i8, ptr %7, i64 1808
  %9 = load ptr, ptr %8, align 8
  %10 = getelementptr inbounds i8, ptr %9, i64 56
  %11 = load ptr, ptr %10, align 8
  %12 = tail call noundef ptr @_ZN15ciObjectFactory12get_metadataEP8Metadata(ptr noundef nonnull align 8 dereferenceable(652) %11, ptr noundef nonnull %4) #4
  br label %_ZN5ciEnv20get_type_array_klassEP5Klass.exit

_ZN5ciEnv20get_type_array_klassEP5Klass.exit:     ; preds = %1, %_ZN5ciEnv12get_metadataEP8Metadata.exit.i
  %.0.i = phi ptr [ %12, %_ZN5ciEnv12get_metadataEP8Metadata.exit.i ], [ null, %1 ]
  ret ptr %.0.i
}